target datalayout = "e-m:e-p270:32:32-p271:32:32-p272:64:64-i64:64-i128:128-f80:128-n8:16:32:64-S128"
target triple = "x86_64-pc-linux-gnu"

%struct.grpc_slice = type { ptr, %"union.grpc_slice::grpc_slice_data" }
%"union.grpc_slice::grpc_slice_data" = type { %"struct.grpc_slice::grpc_slice_data::grpc_slice_refcounted", [8 x i8] }
%"struct.grpc_slice::grpc_slice_data::grpc_slice_refcounted" = type { i64, ptr }
%"struct.grpc_slice::grpc_slice_data::grpc_slice_inlined" = type { i8, [23 x i8] }

; Function Attrs: mustprogress nounwind uwtable
define i32 @grpc_slice_eq(ptr noundef byval(%struct.grpc_slice) align 8 %0, ptr noundef byval(%struct.grpc_slice) align 8 %1) #7 {
  %3 = alloca i32, align 4
  %4 = getelementptr inbounds nuw %struct.grpc_slice, ptr %0, i32 0, i32 0
  %5 = load ptr, ptr %4, align 8, !tbaa !3
  %6 = icmp ne ptr %5, null
  br i1 %6, label %7, label %11

7:                                                ; preds = %2
  %8 = getelementptr inbounds nuw %struct.grpc_slice, ptr %0, i32 0, i32 1
  %9 = getelementptr inbounds nuw %"struct.grpc_slice::grpc_slice_data::grpc_slice_refcounted", ptr %8, i32 0, i32 0
  %10 = load i64, ptr %9, align 8, !tbaa !9
  br label %16

11:                                               ; preds = %2
  %12 = getelementptr inbounds nuw %struct.grpc_slice, ptr %0, i32 0, i32 1
  %13 = getelementptr inbounds nuw %"struct.grpc_slice::grpc_slice_data::grpc_slice_inlined", ptr %12, i32 0, i32 0
  %14 = load i8, ptr %13, align 8, !tbaa !9
  %15 = zext i8 %14 to i64
  br label %16

16:                                               ; preds = %11, %7
  %17 = phi i64 [ %10, %7 ], [ %15, %11 ]
  %18 = getelementptr inbounds nuw %struct.grpc_slice, ptr %1, i32 0, i32 0
  %19 = load ptr, ptr %18, align 8, !tbaa !3
  %20 = icmp ne ptr %19, null
  br i1 %20, label %21, label %25

21:                                               ; preds = %16
  %22 = getelementptr inbounds nuw %struct.grpc_slice, ptr %1, i32 0, i32 1
  %23 = getelementptr inbounds nuw %"struct.grpc_slice::grpc_slice_data::grpc_slice_refcounted", ptr %22, i32 0, i32 0
  %24 = load i64, ptr %23, align 8, !tbaa !9
  br label %30

25:                                               ; preds = %16
  %26 = getelementptr inbounds nuw %struct.grpc_slice, ptr %1, i32 0, i32 1
  %27 = getelementptr inbounds nuw %"struct.grpc_slice::grpc_slice_data::grpc_slice_inlined", ptr %26, i32 0, i32 0
  %28 = load i8, ptr %27, align 8, !tbaa !9
  %29 = zext i8 %28 to i64
  br label %30

30:                                               ; preds = %25, %21
  %31 = phi i64 [ %24, %21 ], [ %29, %25 ]
  %32 = icmp ne i64 %17, %31
  br i1 %32, label %33, label %34

33:                                               ; preds = %30
  store i32 0, ptr %3, align 4
  br label %95

34:                                               ; preds = %30
  %35 = getelementptr inbounds nuw %struct.grpc_slice, ptr %0, i32 0, i32 0
  %36 = load ptr, ptr %35, align 8, !tbaa !3
  %37 = icmp ne ptr %36, null
  br i1 %37, label %38, label %42

38:                                               ; preds = %34
  %39 = getelementptr inbounds nuw %struct.grpc_slice, ptr %0, i32 0, i32 1
  %40 = getelementptr inbounds nuw %"struct.grpc_slice::grpc_slice_data::grpc_slice_refcounted", ptr %39, i32 0, i32 0
  %41 = load i64, ptr %40, align 8, !tbaa !9
  br label %47

42:                                               ; preds = %34
  %43 = getelementptr inbounds nuw %struct.grpc_slice, ptr %0, i32 0, i32 1
  %44 = getelementptr inbounds nuw %"struct.grpc_slice::grpc_slice_data::grpc_slice_inlined", ptr %43, i32 0, i32 0
  %45 = load i8, ptr %44, align 8, !tbaa !9
  %46 = zext i8 %45 to i64
  br label %47

47:                                               ; preds = %42, %38
  %48 = phi i64 [ %41, %38 ], [ %46, %42 ]
  %49 = icmp eq i64 %48, 0
  br i1 %49, label %50, label %51

50:                                               ; preds = %47
  store i32 1, ptr %3, align 4
  br label %95

51:                                               ; preds = %47
  %52 = getelementptr inbounds nuw %struct.grpc_slice, ptr %0, i32 0, i32 0
  %53 = load ptr, ptr %52, align 8, !tbaa !3
  %54 = icmp ne ptr %53, null
  br i1 %54, label %55, label %59

55:                                               ; preds = %51
  %56 = getelementptr inbounds nuw %struct.grpc_slice, ptr %0, i32 0, i32 1
  %57 = getelementptr inbounds nuw %"struct.grpc_slice::grpc_slice_data::grpc_slice_refcounted", ptr %56, i32 0, i32 1
  %58 = load ptr, ptr %57, align 8, !tbaa !9
  br label %63

59:                                               ; preds = %51
  %60 = getelementptr inbounds nuw %struct.grpc_slice, ptr %0, i32 0, i32 1
  %61 = getelementptr inbounds nuw %"struct.grpc_slice::grpc_slice_data::grpc_slice_inlined", ptr %60, i32 0, i32 1
  %62 = getelementptr inbounds [23 x i8], ptr %61, i64 0, i64 0
  br label %63

63:                                               ; preds = %59, %55
  %64 = phi ptr [ %58, %55 ], [ %62, %59 ]
  %65 = getelementptr inbounds nuw %struct.grpc_slice, ptr %1, i32 0, i32 0
  %66 = load ptr, ptr %65, align 8, !tbaa !3
  %67 = icmp ne ptr %66, null
  br i1 %67, label %68, label %72

68:                                               ; preds = %63
  %69 = getelementptr inbounds nuw %struct.grpc_slice, ptr %1, i32 0, i32 1
  %70 = getelementptr inbounds nuw %"struct.grpc_slice::grpc_slice_data::grpc_slice_refcounted", ptr %69, i32 0, i32 1
  %71 = load ptr, ptr %70, align 8, !tbaa !9
  br label %76

72:                                               ; preds = %63
  %73 = getelementptr inbounds nuw %struct.grpc_slice, ptr %1, i32 0, i32 1
  %74 = getelementptr inbounds nuw %"struct.grpc_slice::grpc_slice_data::grpc_slice_inlined", ptr %73, i32 0, i32 1
  %75 = getelementptr inbounds [23 x i8], ptr %74, i64 0, i64 0
  br label %76

76:                                               ; preds = %72, %68
  %77 = phi ptr [ %71, %68 ], [ %75, %72 ]
  %78 = getelementptr inbounds nuw %struct.grpc_slice, ptr %0, i32 0, i32 0
  %79 = load ptr, ptr %78, align 8, !tbaa !3
  %80 = icmp ne ptr %79, null
  br i1 %80, label %81, label %85

81:                                               ; preds = %76
  %82 = getelementptr inbounds nuw %struct.grpc_slice, ptr %0, i32 0, i32 1
  %83 = getelementptr inbounds nuw %"struct.grpc_slice::grpc_slice_data::grpc_slice_refcounted", ptr %82, i32 0, i32 0
  %84 = load i64, ptr %83, align 8, !tbaa !9
  br label %90

85:                                               ; preds = %76
  %86 = getelementptr inbounds nuw %struct.grpc_slice, ptr %0, i32 0, i32 1
  %87 = getelementptr inbounds nuw %"struct.grpc_slice::grpc_slice_data::grpc_slice_inlined", ptr %86, i32 0, i32 0
  %88 = load i8, ptr %87, align 8, !tbaa !9
  %89 = zext i8 %88 to i64
  br label %90

90:                                               ; preds = %85, %81
  %91 = phi i64 [ %84, %81 ], [ %89, %85 ]
  %92 = call i32 @memcmp(ptr noundef %64, ptr noundef %77, i64 noundef %91) #19
  %93 = icmp eq i32 0, %92
  %94 = zext i1 %93 to i32
  store i32 %94, ptr %3, align 4
  br label %95

95:                                               ; preds = %90, %50, %33
  %96 = load i32, ptr %3, align 4
  ret i32 %96
}

; Function Attrs: mustprogress nounwind uwtable
define i32 @grpc_slice_is_equivalent(ptr noundef byval(%struct.grpc_slice) align 8 %0, ptr noundef byval(%struct.grpc_slice) align 8 %1) #7 {
  %3 = alloca i32, align 4
  %4 = alloca %struct.grpc_slice, align 8
  %5 = alloca %struct.grpc_slice, align 8
  %6 = getelementptr inbounds nuw %struct.grpc_slice, ptr %0, i32 0, i32 0
  %7 = load ptr, ptr %6, align 8, !tbaa !3
  %8 = icmp eq ptr %7, null
  br i1 %8, label %13, label %9

9:                                                ; preds = %2
  %10 = getelementptr inbounds nuw %struct.grpc_slice, ptr %1, i32 0, i32 0
  %11 = load ptr, ptr %10, align 8, !tbaa !3
  %12 = icmp eq ptr %11, null
  br i1 %12, label %13, label %15

13:                                               ; preds = %9, %2
  call void @llvm.memcpy.p0.p0.i64(ptr align 8 %4, ptr align 8 %0, i64 32, i1 false), !tbaa.struct !17
  call void @llvm.memcpy.p0.p0.i64(ptr align 8 %5, ptr align 8 %1, i64 32, i1 false), !tbaa.struct !17
  %14 = call i32 @grpc_slice_eq(ptr noundef byval(%struct.grpc_slice) align 8 %4, ptr noundef byval(%struct.grpc_slice) align 8 %5)
  store i32 %14, ptr %3, align 4
  br label %34

15:                                               ; preds = %9
  %16 = getelementptr inbounds nuw %struct.grpc_slice, ptr %0, i32 0, i32 1
  %17 = getelementptr inbounds nuw %"struct.grpc_slice::grpc_slice_data::grpc_slice_refcounted", ptr %16, i32 0, i32 0
  %18 = load i64, ptr %17, align 8, !tbaa !9
  %19 = getelementptr inbounds nuw %struct.grpc_slice, ptr %1, i32 0, i32 1
  %20 = getelementptr inbounds nuw %"struct.grpc_slice::grpc_slice_data::grpc_slice_refcounted", ptr %19, i32 0, i32 0
  %21 = load i64, ptr %20, align 8, !tbaa !9
  %22 = icmp eq i64 %18, %21
  br i1 %22, label %23, label %31

23:                                               ; preds = %15
  %24 = getelementptr inbounds nuw %struct.grpc_slice, ptr %0, i32 0, i32 1
  %25 = getelementptr inbounds nuw %"struct.grpc_slice::grpc_slice_data::grpc_slice_refcounted", ptr %24, i32 0, i32 1
  %26 = load ptr, ptr %25, align 8, !tbaa !9
  %27 = getelementptr inbounds nuw %struct.grpc_slice, ptr %1, i32 0, i32 1
  %28 = getelementptr inbounds nuw %"struct.grpc_slice::grpc_slice_data::grpc_slice_refcounted", ptr %27, i32 0, i32 1
  %29 = load ptr, ptr %28, align 8, !tbaa !9
  %30 = icmp eq ptr %26, %29
  br label %31

31:                                               ; preds = %23, %15
  %32 = phi i1 [ false, %15 ], [ %30, %23 ]
  %33 = zext i1 %32 to i32
  store i32 %33, ptr %3, align 4
  br label %34

34:                                               ; preds = %31, %13
  %35 = load i32, ptr %3, align 4
  ret i32 %35
}