; Function Attrs: mustprogress nofree nounwind willreturn memory(read, argmem: readwrite, inaccessiblemem: none) uwtable
define range(i32 0, 2) i32 @grpc_slice_is_equivalent(ptr noundef readonly byval(%struct.grpc_slice) align 8 captures(none) %0, ptr noundef readonly byval(%struct.grpc_slice) align 8 captures(none) %1) local_unnamed_addr #14 {
  %3 = alloca %struct.grpc_slice, align 8
  %4 = alloca %struct.grpc_slice, align 8
  %5 = load ptr, ptr %0, align 8, !tbaa !3
  %6 = icmp eq ptr %5, null
  %7 = load ptr, ptr %1, align 8
  %8 = icmp eq ptr %7, null
  %or.cond = select i1 %6, i1 true, i1 %8
  br i1 %or.cond, label %9, label %32

9:                                                ; preds = %2
  call void @llvm.memcpy.p0.p0.i64(ptr noundef nonnull align 8 dereferenceable(32) %3, ptr noundef nonnull align 8 dereferenceable(32) %0, i64 32, i1 false), !tbaa.struct !84
  call void @llvm.memcpy.p0.p0.i64(ptr noundef nonnull align 8 dereferenceable(32) %4, ptr noundef nonnull align 8 dereferenceable(32) %1, i64 32, i1 false), !tbaa.struct !84
  %10 = load ptr, ptr %3, align 8, !tbaa !3
  %.not.i = icmp eq ptr %10, null
  %11 = getelementptr inbounds nuw i8, ptr %3, i64 8
  %12 = load i64, ptr %11, align 8
  %13 = and i64 %12, 255
  %14 = select i1 %.not.i, i64 %13, i64 %12
  %15 = load ptr, ptr %4, align 8, !tbaa !3
  %.not1.i = icmp eq ptr %15, null
  %16 = getelementptr inbounds nuw i8, ptr %4, i64 8
  %17 = load i64, ptr %16, align 8
  %18 = and i64 %17, 255
  %19 = select i1 %.not1.i, i64 %18, i64 %17
  %.not2.i = icmp eq i64 %14, %19
  br i1 %.not2.i, label %20, label %grpc_slice_eq.exit

20:                                               ; preds = %9
  %21 = icmp eq i64 %14, 0
  br i1 %21, label %grpc_slice_eq.exit, label %22

22:                                               ; preds = %20
  %23 = getelementptr inbounds nuw i8, ptr %3, i64 16
  %24 = load ptr, ptr %23, align 8
  %25 = getelementptr inbounds nuw i8, ptr %3, i64 9
  %26 = select i1 %.not.i, ptr %25, ptr %24
  %27 = getelementptr inbounds nuw i8, ptr %4, i64 16
  %28 = load ptr, ptr %27, align 8
  %29 = getelementptr inbounds nuw i8, ptr %4, i64 9
  %30 = select i1 %.not1.i, ptr %29, ptr %28
  %bcmp.i = call i32 @bcmp(ptr %26, ptr %30, i64 %14)
  %31 = icmp eq i32 %bcmp.i, 0
  br label %grpc_slice_eq.exit

32:                                               ; preds = %2
  %33 = getelementptr inbounds nuw i8, ptr %0, i64 8
  %34 = load i64, ptr %33, align 8, !tbaa !9
  %35 = getelementptr inbounds nuw i8, ptr %1, i64 8
  %36 = load i64, ptr %35, align 8, !tbaa !9
  %37 = icmp eq i64 %34, %36
  %38 = getelementptr inbounds nuw i8, ptr %0, i64 16
  %39 = load ptr, ptr %38, align 8
  %40 = getelementptr inbounds nuw i8, ptr %1, i64 16
  %41 = load ptr, ptr %40, align 8
  %42 = icmp eq ptr %39, %41
  %43 = select i1 %37, i1 %42, i1 false
  br label %grpc_slice_eq.exit

grpc_slice_eq.exit:                               ; preds = %22, %20, %9, %32
  %.0.shrunk = phi i1 [ %43, %32 ], [ %31, %22 ], [ false, %9 ], [ true, %20 ]
  %.0 = zext i1 %.0.shrunk to i32
  ret i32 %.0
}